target datalayout = "e-m:e-p270:32:32-p271:32:32-p272:64:64-i64:64-i128:128-f80:128-n8:16:32:64-S128"
target triple = "x86_64-pc-linux-gnu"

%struct._packet_info = type { ptr, ptr, i32, i32, %struct.nstime_t, %struct.nstime_t, %struct.nstime_t, i8, ptr, ptr, ptr, ptr, %struct._address, %struct._address, %struct._address, %struct._address, %struct._address, %struct._address, i32, ptr, i8, [3 x i8], %struct.anon, i32, i32, i32, i32, ptr, i8, ptr, ptr, i16, i16, i32, i32, i16, i32, i32, ptr, ptr, ptr, i8, i8, i16, i16, i16, i32, i16, i16, ptr, ptr, ptr, ptr, ptr, i32, i32 }
%struct.nstime_t = type { i64, i32 }
%struct._address = type { i32, i32, ptr, ptr }
%struct.anon = type { i8, [3 x i8] }

@.str.66 = private unnamed_addr constant [4 x i8] c"PPP\00", align 1
@chdlc_handle = internal global ptr null, align 8
@.str.1000 = private unnamed_addr constant [4 x i8] c"DTE\00", align 1
@.str.1001 = private unnamed_addr constant [4 x i8] c"DCE\00", align 1
@.str.1002 = private unnamed_addr constant [4 x i8] c"N/A\00", align 1

; Function Attrs: null_pointer_is_valid sspstrong uwtable
define internal i32 @dissect_ppp_hdlc(ptr noundef %0, ptr noundef %1, ptr noundef %2, ptr noundef %3) #1 {
  %5 = alloca i32, align 4
  %6 = alloca ptr, align 8
  %7 = alloca ptr, align 8
  %8 = alloca ptr, align 8
  %9 = alloca ptr, align 8
  %10 = alloca i8, align 1
  %11 = alloca i32, align 4
  store ptr %0, ptr %6, align 8
  store ptr %1, ptr %7, align 8
  store ptr %2, ptr %8, align 8
  store ptr %3, ptr %9, align 8
  call void @llvm.lifetime.start.p0(i64 1, ptr %10) #6
  %12 = load ptr, ptr %6, align 8
  %13 = call zeroext i8 @tvb_get_uint8(ptr noundef %12, i32 noundef 0)
  store i8 %13, ptr %10, align 1
  %14 = load i8, ptr %10, align 1
  %15 = zext i8 %14 to i32
  %16 = icmp eq i32 %15, 15
  br i1 %16, label %21, label %17

17:                                               ; preds = %4
  %18 = load i8, ptr %10, align 1
  %19 = zext i8 %18 to i32
  %20 = icmp eq i32 %19, 143
  br i1 %20, label %21, label %27

21:                                               ; preds = %17, %4
  %22 = load ptr, ptr @chdlc_handle, align 8
  %23 = load ptr, ptr %6, align 8
  %24 = load ptr, ptr %7, align 8
  %25 = load ptr, ptr %8, align 8
  %26 = call i32 @call_dissector(ptr noundef %22, ptr noundef %23, ptr noundef %24, ptr noundef %25)
  store i32 %26, ptr %5, align 4
  store i32 1, ptr %11, align 4
  br label %61

27:                                               ; preds = %17
  %28 = load ptr, ptr %7, align 8
  %29 = getelementptr inbounds nuw %struct._packet_info, ptr %28, i32 0, i32 1
  %30 = load ptr, ptr %29, align 8
  call void @col_set_str(ptr noundef %30, i32 noundef 35, ptr noundef @.str.66)
  %31 = load ptr, ptr %7, align 8
  %32 = getelementptr inbounds nuw %struct._packet_info, ptr %31, i32 0, i32 37
  %33 = load i32, ptr %32, align 4
  switch i32 %33, label %48 [
    i32 0, label %34
    i32 1, label %41
  ]

34:                                               ; preds = %27
  %35 = load ptr, ptr %7, align 8
  %36 = getelementptr inbounds nuw %struct._packet_info, ptr %35, i32 0, i32 1
  %37 = load ptr, ptr %36, align 8
  call void @col_set_str(ptr noundef %37, i32 noundef 20, ptr noundef @.str.1000)
  %38 = load ptr, ptr %7, align 8
  %39 = getelementptr inbounds nuw %struct._packet_info, ptr %38, i32 0, i32 1
  %40 = load ptr, ptr %39, align 8
  call void @col_set_str(ptr noundef %40, i32 noundef 18, ptr noundef @.str.1001)
  br label %55

41:                                               ; preds = %27
  %42 = load ptr, ptr %7, align 8
  %43 = getelementptr inbounds nuw %struct._packet_info, ptr %42, i32 0, i32 1
  %44 = load ptr, ptr %43, align 8
  call void @col_set_str(ptr noundef %44, i32 noundef 20, ptr noundef @.str.1001)
  %45 = load ptr, ptr %7, align 8
  %46 = getelementptr inbounds nuw %struct._packet_info, ptr %45, i32 0, i32 1
  %47 = load ptr, ptr %46, align 8
  call void @col_set_str(ptr noundef %47, i32 noundef 18, ptr noundef @.str.1000)
  br label %55

48:                                               ; preds = %27
  %49 = load ptr, ptr %7, align 8
  %50 = getelementptr inbounds nuw %struct._packet_info, ptr %49, i32 0, i32 1
  %51 = load ptr, ptr %50, align 8
  call void @col_set_str(ptr noundef %51, i32 noundef 20, ptr noundef @.str.1002)
  %52 = load ptr, ptr %7, align 8
  %53 = getelementptr inbounds nuw %struct._packet_info, ptr %52, i32 0, i32 1
  %54 = load ptr, ptr %53, align 8
  call void @col_set_str(ptr noundef %54, i32 noundef 18, ptr noundef @.str.1002)
  br label %55

55:                                               ; preds = %48, %41, %34
  %56 = load ptr, ptr %6, align 8
  %57 = load ptr, ptr %7, align 8
  %58 = load ptr, ptr %8, align 8
  call void @dissect_ppp_hdlc_common(ptr noundef %56, ptr noundef %57, ptr noundef %58)
  %59 = load ptr, ptr %6, align 8
  %60 = call i32 @tvb_captured_length(ptr noundef %59)
  store i32 %60, ptr %5, align 4
  store i32 1, ptr %11, align 4
  br label %61

61:                                               ; preds = %55, %21
  call void @llvm.lifetime.end.p0(i64 1, ptr %10) #6
  %62 = load i32, ptr %5, align 4
  ret i32 %62
}