; Function Attrs: null_pointer_is_valid sspstrong uwtable
define internal i32 @dissect_ppp_hdlc(ptr noundef %0, ptr noundef %1, ptr noundef %2, ptr readnone captures(none) %3) #1 {
  %5 = tail call zeroext i8 @tvb_get_uint8(ptr noundef %0, i32 noundef 0)
  %6 = and i8 %5, 127
  %or.cond = icmp eq i8 %6, 15
  br i1 %or.cond, label %7, label %10

7:                                                ; preds = %4
  %8 = load ptr, ptr @chdlc_handle, align 8
  %9 = tail call i32 @call_dissector(ptr noundef %8, ptr noundef %0, ptr noundef %1, ptr noundef %2)
  br label %21

10:                                               ; preds = %4
  %11 = getelementptr inbounds nuw i8, ptr %1, i64 8
  %12 = load ptr, ptr %11, align 8
  tail call void @col_set_str(ptr noundef %12, i32 noundef 35, ptr noundef nonnull @.str.66)
  %13 = getelementptr inbounds nuw i8, ptr %1, i64 348
  %14 = load i32, ptr %13, align 4
  %15 = load ptr, ptr %11, align 8
  switch i32 %14, label %17 [
    i32 0, label %18
    i32 1, label %16
  ]

16:                                               ; preds = %10
  br label %18

17:                                               ; preds = %10
  br label %18

18:                                               ; preds = %10, %17, %16
  %.str.1002.sink20 = phi ptr [ @.str.1002, %17 ], [ @.str.1001, %16 ], [ @.str.1000, %10 ]
  %.str.1002.sink = phi ptr [ @.str.1002, %17 ], [ @.str.1000, %16 ], [ @.str.1001, %10 ]
  tail call void @col_set_str(ptr noundef %15, i32 noundef 20, ptr noundef nonnull %.str.1002.sink20)
  %19 = load ptr, ptr %11, align 8
  tail call void @col_set_str(ptr noundef %19, i32 noundef 18, ptr noundef nonnull %.str.1002.sink)
  tail call fastcc void @dissect_ppp_hdlc_common(ptr noundef %0, ptr noundef %1, ptr noundef %2)
  %20 = tail call i32 @tvb_captured_length(ptr noundef %0)
  br label %21

21:                                               ; preds = %18, %7
  %.0 = phi i32 [ %9, %7 ], [ %20, %18 ]
  ret i32 %.0
}